(dp0
S'dark'
p1
(lp2
sS'std'
p3
(lp4
sS'bias'
p5
(lp6
S'T2m3wb-20181119.191309-0045'
p7
aS'T2m3wb-20181119.190650-0042'
p8
aS'T2m3wb-20181119.185618-0037'
p9
aS'T2m3wb-20181119.191103-0044'
p10
aS'T2m3wb-20181119.190237-0040'
p11
aS'T2m3wb-20181119.190031-0039'
p12
aS'T2m3wb-20181119.190856-0043'
p13
aS'T2m3wb-20181119.185412-0036'
p14
aS'T2m3wb-20181119.185825-0038'
p15
aS'T2m3wb-20181119.190444-0041'
p16
asS'arc'
p17
(lp18
S'T2m3wb-20181119.123651-0001'
p19
asS'wire'
p20
(lp21
S'T2m3wb-20181119.184646-0035'
p22
aS'T2m3wb-20181119.182631-0027'
p23
aS'T2m3wb-20181119.182857-0028'
p24
aS'T2m3wb-20181119.184012-0032'
p25
aS'T2m3wb-20181119.182404-0026'
p26
aS'T2m3wb-20181119.184223-0033'
p27
aS'T2m3wb-20181119.183350-0030'
p28
aS'T2m3wb-20181119.183123-0029'
p29
aS'T2m3wb-20181119.184435-0034'
p30
aS'T2m3wb-20181119.183801-0031'
p31
asS'sci'
p32
(lp33
(dp34
S'sky'
p35
(lp36
sg32
(lp37
S'T2m3wb-20181119.133304-0003'
p38
aS'T2m3wb-20181119.131054-0002'
p39
aS'T2m3wb-20181119.135514-0004'
p40
asasS'twiflat'
p41
(lp42
sS'domeflat'
p43
(lp44
S'T2m3wb-20181119.161934-0008'
p45
aS'T2m3wb-20181119.161723-0007'
p46
aS'T2m3wb-20181119.181047-0021'
p47
aS'T2m3wb-20181119.181314-0022'
p48
aS'T2m3wb-20181119.161149-0005'
p49
aS'T2m3wb-20181119.181806-0024'
p50
aS'T2m3wb-20181119.161512-0006'
p51
aS'T2m3wb-20181119.181540-0023'
p52
aS'T2m3wb-20181119.182033-0025'
p53
aS'T2m3wb-20181119.162146-0009'
p54
aS'T2m3wb-20181119.163454-0015'
p55
as.